target datalayout = "e-m:e-p270:32:32-p271:32:32-p272:64:64-i64:64-i128:128-f80:128-n8:16:32:64-S128"
target triple = "x86_64-pc-linux-gnu"

%class.JfrRecorderService = type { ptr, ptr, ptr, ptr, ptr, ptr }

; Function Attrs: mustprogress nounwind uwtable
define hidden void @_ZN18JfrRecorderService14open_new_chunkEb(ptr noundef nonnull align 8 dereferenceable(48) %0, i1 noundef zeroext %1) #1 align 2 {
  %3 = alloca ptr, align 8
  %4 = alloca i8, align 1
  %5 = alloca i8, align 1
  store ptr %0, ptr %3, align 8
  %6 = zext i1 %1 to i8
  store i8 %6, ptr %4, align 1
  %7 = load ptr, ptr %3, align 8
  call void @_ZN16JfrChunkRotation11on_rotationEv()
  %8 = getelementptr inbounds %class.JfrRecorderService, ptr %7, i32 0, i32 2
  %9 = load ptr, ptr %8, align 8
  %10 = load i8, ptr %4, align 1
  %11 = trunc i8 %10 to i1
  %12 = call noundef zeroext i1 @_ZN13JfrRepository10open_chunkEb(ptr noundef nonnull align 8 dereferenceable(16) %9, i1 noundef zeroext %11)
  %13 = zext i1 %12 to i8
  store i8 %13, ptr %5, align 1
  %14 = call noundef nonnull align 8 dereferenceable(49) ptr @_ZN10JfrStorage7controlEv()
  %15 = load i8, ptr %5, align 1
  %16 = trunc i8 %15 to i1
  call void @_ZN17JfrStorageControl11set_to_diskEb(ptr noundef nonnull align 8 dereferenceable(49) %14, i1 noundef zeroext %16)
  %17 = load i8, ptr %5, align 1
  %18 = trunc i8 %17 to i1
  br i1 %18, label %19, label %23

19:                                               ; preds = %2
  %20 = getelementptr inbounds %class.JfrRecorderService, ptr %7, i32 0, i32 0
  %21 = load ptr, ptr %20, align 8
  %22 = call noundef i64 @_ZN20JfrCheckpointManager33write_static_type_set_and_threadsEv(ptr noundef nonnull align 8 dereferenceable(32) %21)
  br label %23

23:                                               ; preds = %19, %2
  ret void
}

; Function Attrs: mustprogress nounwind uwtable
define hidden void @_ZN18JfrRecorderService22finalize_current_chunkEv(ptr noundef nonnull align 8 dereferenceable(48) %0) #1 align 2 {
  %2 = alloca ptr, align 8
  store ptr %0, ptr %2, align 8
  %3 = load ptr, ptr %2, align 8
  call void @_ZN18JfrRecorderService5writeEv(ptr noundef nonnull align 8 dereferenceable(48) %3)
  ret void
}

; Function Attrs: mustprogress nounwind uwtable
define hidden void @_ZN18JfrRecorderService14chunk_rotationEv(ptr noundef nonnull align 8 dereferenceable(48) %0) #1 align 2 {
  %2 = alloca ptr, align 8
  store ptr %0, ptr %2, align 8
  %3 = load ptr, ptr %2, align 8
  call void @_ZN18JfrRecorderService22finalize_current_chunkEv(ptr noundef nonnull align 8 dereferenceable(48) %3)
  call void @_ZN18JfrRecorderService14open_new_chunkEb(ptr noundef nonnull align 8 dereferenceable(48) %3, i1 noundef zeroext false)
  ret void
}