; Function Attrs: mustprogress nounwind uwtable
define hidden void @_ZN18JfrRecorderService14chunk_rotationEv(ptr noundef nonnull align 8 dereferenceable(48) %0) local_unnamed_addr #0 align 2 {
  tail call void @_ZN18JfrRecorderService5writeEv(ptr noundef nonnull align 8 dereferenceable(48) %0)
  tail call void @_ZN16JfrChunkRotation11on_rotationEv() #14
  %2 = getelementptr inbounds i8, ptr %0, i64 16
  %3 = load ptr, ptr %2, align 8
  %4 = tail call noundef zeroext i1 @_ZN13JfrRepository10open_chunkEb(ptr noundef nonnull align 8 dereferenceable(16) %3, i1 noundef zeroext false) #14
  %5 = tail call noundef nonnull align 8 dereferenceable(49) ptr @_ZN10JfrStorage7controlEv() #14
  tail call void @_ZN17JfrStorageControl11set_to_diskEb(ptr noundef nonnull align 8 dereferenceable(49) %5, i1 noundef zeroext %4) #14
  br i1 %4, label %6, label %_ZN18JfrRecorderService14open_new_chunkEb.exit

6:                                                ; preds = %1
  %7 = load ptr, ptr %0, align 8
  %8 = tail call noundef i64 @_ZN20JfrCheckpointManager33write_static_type_set_and_threadsEv(ptr noundef nonnull align 8 dereferenceable(32) %7) #14
  br label %_ZN18JfrRecorderService14open_new_chunkEb.exit

_ZN18JfrRecorderService14open_new_chunkEb.exit:   ; preds = %1, %6
  ret void
}